target datalayout = "e-m:e-p270:32:32-p271:32:32-p272:64:64-i64:64-i128:128-f80:128-n8:16:32:64-S128"
target triple = "x86_64-pc-linux-gnu"

%struct.mbedtls_mpi = type { i32, i64, ptr }

; Function Attrs: mustprogress nounwind uwtable
define internal noundef i64 @_ZL11mpi_sub_hlpmPmPKmS1_(i64 noundef %0, ptr noundef %1, ptr noundef %2, ptr noundef %3) #0 {
  %5 = alloca i64, align 8
  %6 = alloca ptr, align 8
  %7 = alloca ptr, align 8
  %8 = alloca ptr, align 8
  %9 = alloca i64, align 8
  %10 = alloca i64, align 8
  %11 = alloca i64, align 8
  %12 = alloca i64, align 8
  store i64 %0, ptr %5, align 8, !tbaa !16
  store ptr %1, ptr %6, align 8, !tbaa !15
  store ptr %2, ptr %7, align 8, !tbaa !15
  store ptr %3, ptr %8, align 8, !tbaa !15
  call void @llvm.lifetime.start.p0(i64 8, ptr %9) #10
  call void @llvm.lifetime.start.p0(i64 8, ptr %10) #10
  store i64 0, ptr %10, align 8, !tbaa !16
  call void @llvm.lifetime.start.p0(i64 8, ptr %11) #10
  call void @llvm.lifetime.start.p0(i64 8, ptr %12) #10
  store i64 0, ptr %9, align 8, !tbaa !16
  br label %13

13:                                               ; preds = %49, %4
  %14 = load i64, ptr %9, align 8, !tbaa !16
  %15 = load i64, ptr %5, align 8, !tbaa !16
  %16 = icmp ult i64 %14, %15
  br i1 %16, label %17, label %52

17:                                               ; preds = %13
  %18 = load ptr, ptr %7, align 8, !tbaa !15
  %19 = load i64, ptr %9, align 8, !tbaa !16
  %20 = getelementptr inbounds nuw i64, ptr %18, i64 %19
  %21 = load i64, ptr %20, align 8, !tbaa !16
  %22 = load i64, ptr %10, align 8, !tbaa !16
  %23 = icmp ult i64 %21, %22
  %24 = zext i1 %23 to i64
  store i64 %24, ptr %12, align 8, !tbaa !16
  %25 = load ptr, ptr %7, align 8, !tbaa !15
  %26 = load i64, ptr %9, align 8, !tbaa !16
  %27 = getelementptr inbounds nuw i64, ptr %25, i64 %26
  %28 = load i64, ptr %27, align 8, !tbaa !16
  %29 = load i64, ptr %10, align 8, !tbaa !16
  %30 = sub i64 %28, %29
  store i64 %30, ptr %11, align 8, !tbaa !16
  %31 = load i64, ptr %11, align 8, !tbaa !16
  %32 = load ptr, ptr %8, align 8, !tbaa !15
  %33 = load i64, ptr %9, align 8, !tbaa !16
  %34 = getelementptr inbounds nuw i64, ptr %32, i64 %33
  %35 = load i64, ptr %34, align 8, !tbaa !16
  %36 = icmp ult i64 %31, %35
  %37 = zext i1 %36 to i64
  %38 = load i64, ptr %12, align 8, !tbaa !16
  %39 = add i64 %37, %38
  store i64 %39, ptr %10, align 8, !tbaa !16
  %40 = load i64, ptr %11, align 8, !tbaa !16
  %41 = load ptr, ptr %8, align 8, !tbaa !15
  %42 = load i64, ptr %9, align 8, !tbaa !16
  %43 = getelementptr inbounds nuw i64, ptr %41, i64 %42
  %44 = load i64, ptr %43, align 8, !tbaa !16
  %45 = sub i64 %40, %44
  %46 = load ptr, ptr %6, align 8, !tbaa !15
  %47 = load i64, ptr %9, align 8, !tbaa !16
  %48 = getelementptr inbounds nuw i64, ptr %46, i64 %47
  store i64 %45, ptr %48, align 8, !tbaa !16
  br label %49

49:                                               ; preds = %17
  %50 = load i64, ptr %9, align 8, !tbaa !16
  %51 = add i64 %50, 1
  store i64 %51, ptr %9, align 8, !tbaa !16
  br label %13, !llvm.loop !59

52:                                               ; preds = %13
  %53 = load i64, ptr %10, align 8, !tbaa !16
  call void @llvm.lifetime.end.p0(i64 8, ptr %12) #10
  call void @llvm.lifetime.end.p0(i64 8, ptr %11) #10
  call void @llvm.lifetime.end.p0(i64 8, ptr %10) #10
  call void @llvm.lifetime.end.p0(i64 8, ptr %9) #10
  ret i64 %53
}

; Function Attrs: mustprogress uwtable
define internal void @_ZL11mpi_montmulP11mbedtls_mpiPKS_S2_mS2_(ptr noundef %0, ptr noundef %1, ptr noundef %2, i64 noundef %3, ptr noundef %4) #1 {
  %6 = alloca ptr, align 8
  %7 = alloca ptr, align 8
  %8 = alloca ptr, align 8
  %9 = alloca i64, align 8
  %10 = alloca ptr, align 8
  %11 = alloca i64, align 8
  %12 = alloca i64, align 8
  %13 = alloca i64, align 8
  %14 = alloca i64, align 8
  %15 = alloca i64, align 8
  %16 = alloca ptr, align 8
  store ptr %0, ptr %6, align 8, !tbaa !3
  store ptr %1, ptr %7, align 8, !tbaa !3
  store ptr %2, ptr %8, align 8, !tbaa !3
  store i64 %3, ptr %9, align 8, !tbaa !16
  store ptr %4, ptr %10, align 8, !tbaa !3
  call void @llvm.lifetime.start.p0(i64 8, ptr %11) #10
  call void @llvm.lifetime.start.p0(i64 8, ptr %12) #10
  call void @llvm.lifetime.start.p0(i64 8, ptr %13) #10
  call void @llvm.lifetime.start.p0(i64 8, ptr %14) #10
  call void @llvm.lifetime.start.p0(i64 8, ptr %15) #10
  call void @llvm.lifetime.start.p0(i64 8, ptr %16) #10
  %17 = load ptr, ptr %10, align 8, !tbaa !3
  %18 = getelementptr inbounds nuw %struct.mbedtls_mpi, ptr %17, i32 0, i32 2
  %19 = load ptr, ptr %18, align 8, !tbaa !14
  %20 = load ptr, ptr %10, align 8, !tbaa !3
  %21 = getelementptr inbounds nuw %struct.mbedtls_mpi, ptr %20, i32 0, i32 1
  %22 = load i64, ptr %21, align 8, !tbaa !13
  %23 = mul i64 %22, 8
  call void @llvm.memset.p0.i64(ptr align 8 %19, i8 0, i64 %23, i1 false)
  %24 = load ptr, ptr %10, align 8, !tbaa !3
  %25 = getelementptr inbounds nuw %struct.mbedtls_mpi, ptr %24, i32 0, i32 2
  %26 = load ptr, ptr %25, align 8, !tbaa !14
  store ptr %26, ptr %16, align 8, !tbaa !15
  %27 = load ptr, ptr %8, align 8, !tbaa !3
  %28 = getelementptr inbounds nuw %struct.mbedtls_mpi, ptr %27, i32 0, i32 1
  %29 = load i64, ptr %28, align 8, !tbaa !13
  store i64 %29, ptr %12, align 8, !tbaa !16
  %30 = load ptr, ptr %7, align 8, !tbaa !3
  %31 = getelementptr inbounds nuw %struct.mbedtls_mpi, ptr %30, i32 0, i32 1
  %32 = load i64, ptr %31, align 8, !tbaa !13
  %33 = load i64, ptr %12, align 8, !tbaa !16
  %34 = icmp ult i64 %32, %33
  br i1 %34, label %35, label %39

35:                                               ; preds = %5
  %36 = load ptr, ptr %7, align 8, !tbaa !3
  %37 = getelementptr inbounds nuw %struct.mbedtls_mpi, ptr %36, i32 0, i32 1
  %38 = load i64, ptr %37, align 8, !tbaa !13
  br label %41

39:                                               ; preds = %5
  %40 = load i64, ptr %12, align 8, !tbaa !16
  br label %41

41:                                               ; preds = %39, %35
  %42 = phi i64 [ %38, %35 ], [ %40, %39 ]
  store i64 %42, ptr %13, align 8, !tbaa !16
  store i64 0, ptr %11, align 8, !tbaa !16
  br label %43

43:                                               ; preds = %86, %41
  %44 = load i64, ptr %11, align 8, !tbaa !16
  %45 = load i64, ptr %12, align 8, !tbaa !16
  %46 = icmp ult i64 %44, %45
  br i1 %46, label %47, label %89

47:                                               ; preds = %43
  %48 = load ptr, ptr %6, align 8, !tbaa !3
  %49 = getelementptr inbounds nuw %struct.mbedtls_mpi, ptr %48, i32 0, i32 2
  %50 = load ptr, ptr %49, align 8, !tbaa !14
  %51 = load i64, ptr %11, align 8, !tbaa !16
  %52 = getelementptr inbounds nuw i64, ptr %50, i64 %51
  %53 = load i64, ptr %52, align 8, !tbaa !16
  store i64 %53, ptr %14, align 8, !tbaa !16
  %54 = load ptr, ptr %16, align 8, !tbaa !15
  %55 = getelementptr inbounds i64, ptr %54, i64 0
  %56 = load i64, ptr %55, align 8, !tbaa !16
  %57 = load i64, ptr %14, align 8, !tbaa !16
  %58 = load ptr, ptr %7, align 8, !tbaa !3
  %59 = getelementptr inbounds nuw %struct.mbedtls_mpi, ptr %58, i32 0, i32 2
  %60 = load ptr, ptr %59, align 8, !tbaa !14
  %61 = getelementptr inbounds i64, ptr %60, i64 0
  %62 = load i64, ptr %61, align 8, !tbaa !16
  %63 = mul i64 %57, %62
  %64 = add i64 %56, %63
  %65 = load i64, ptr %9, align 8, !tbaa !16
  %66 = mul i64 %64, %65
  store i64 %66, ptr %15, align 8, !tbaa !16
  %67 = load i64, ptr %13, align 8, !tbaa !16
  %68 = load ptr, ptr %7, align 8, !tbaa !3
  %69 = getelementptr inbounds nuw %struct.mbedtls_mpi, ptr %68, i32 0, i32 2
  %70 = load ptr, ptr %69, align 8, !tbaa !14
  %71 = load ptr, ptr %16, align 8, !tbaa !15
  %72 = load i64, ptr %14, align 8, !tbaa !16
  call void @_ZL11mpi_mul_hlpmPKmPmm(i64 noundef %67, ptr noundef %70, ptr noundef %71, i64 noundef %72)
  %73 = load i64, ptr %12, align 8, !tbaa !16
  %74 = load ptr, ptr %8, align 8, !tbaa !3
  %75 = getelementptr inbounds nuw %struct.mbedtls_mpi, ptr %74, i32 0, i32 2
  %76 = load ptr, ptr %75, align 8, !tbaa !14
  %77 = load ptr, ptr %16, align 8, !tbaa !15
  %78 = load i64, ptr %15, align 8, !tbaa !16
  call void @_ZL11mpi_mul_hlpmPKmPmm(i64 noundef %73, ptr noundef %76, ptr noundef %77, i64 noundef %78)
  %79 = load i64, ptr %14, align 8, !tbaa !16
  %80 = load ptr, ptr %16, align 8, !tbaa !15
  %81 = getelementptr inbounds nuw i64, ptr %80, i32 1
  store ptr %81, ptr %16, align 8, !tbaa !15
  store i64 %79, ptr %80, align 8, !tbaa !16
  %82 = load ptr, ptr %16, align 8, !tbaa !15
  %83 = load i64, ptr %12, align 8, !tbaa !16
  %84 = add i64 %83, 1
  %85 = getelementptr inbounds nuw i64, ptr %82, i64 %84
  store i64 0, ptr %85, align 8, !tbaa !16
  br label %86

86:                                               ; preds = %47
  %87 = load i64, ptr %11, align 8, !tbaa !16
  %88 = add i64 %87, 1
  store i64 %88, ptr %11, align 8, !tbaa !16
  br label %43, !llvm.loop !82

89:                                               ; preds = %43
  %90 = load ptr, ptr %6, align 8, !tbaa !3
  %91 = getelementptr inbounds nuw %struct.mbedtls_mpi, ptr %90, i32 0, i32 2
  %92 = load ptr, ptr %91, align 8, !tbaa !14
  %93 = load ptr, ptr %16, align 8, !tbaa !15
  %94 = load i64, ptr %12, align 8, !tbaa !16
  %95 = mul i64 %94, 8
  call void @llvm.memcpy.p0.p0.i64(ptr align 8 %92, ptr align 8 %93, i64 %95, i1 false)
  %96 = load ptr, ptr %16, align 8, !tbaa !15
  %97 = load i64, ptr %12, align 8, !tbaa !16
  %98 = getelementptr inbounds nuw i64, ptr %96, i64 %97
  %99 = load i64, ptr %98, align 8, !tbaa !16
  %100 = add i64 %99, 1
  store i64 %100, ptr %98, align 8, !tbaa !16
  %101 = load i64, ptr %12, align 8, !tbaa !16
  %102 = load ptr, ptr %16, align 8, !tbaa !15
  %103 = load ptr, ptr %16, align 8, !tbaa !15
  %104 = load ptr, ptr %8, align 8, !tbaa !3
  %105 = getelementptr inbounds nuw %struct.mbedtls_mpi, ptr %104, i32 0, i32 2
  %106 = load ptr, ptr %105, align 8, !tbaa !14
  %107 = call noundef i64 @_ZL11mpi_sub_hlpmPmPKmS1_(i64 noundef %101, ptr noundef %102, ptr noundef %103, ptr noundef %106)
  %108 = load ptr, ptr %16, align 8, !tbaa !15
  %109 = load i64, ptr %12, align 8, !tbaa !16
  %110 = getelementptr inbounds nuw i64, ptr %108, i64 %109
  %111 = load i64, ptr %110, align 8, !tbaa !16
  %112 = sub i64 %111, %107
  store i64 %112, ptr %110, align 8, !tbaa !16
  %113 = load i64, ptr %12, align 8, !tbaa !16
  %114 = load ptr, ptr %6, align 8, !tbaa !3
  %115 = getelementptr inbounds nuw %struct.mbedtls_mpi, ptr %114, i32 0, i32 2
  %116 = load ptr, ptr %115, align 8, !tbaa !14
  %117 = load ptr, ptr %16, align 8, !tbaa !15
  %118 = load ptr, ptr %16, align 8, !tbaa !15
  %119 = load i64, ptr %12, align 8, !tbaa !16
  %120 = getelementptr inbounds nuw i64, ptr %118, i64 %119
  %121 = load i64, ptr %120, align 8, !tbaa !16
  %122 = trunc i64 %121 to i8
  call void @_Z31mbedtls_ct_mpi_uint_cond_assignmPmPKmh(i64 noundef %113, ptr noundef %116, ptr noundef %117, i8 noundef zeroext %122)
  call void @llvm.lifetime.end.p0(i64 8, ptr %16) #10
  call void @llvm.lifetime.end.p0(i64 8, ptr %15) #10
  call void @llvm.lifetime.end.p0(i64 8, ptr %14) #10
  call void @llvm.lifetime.end.p0(i64 8, ptr %13) #10
  call void @llvm.lifetime.end.p0(i64 8, ptr %12) #10
  call void @llvm.lifetime.end.p0(i64 8, ptr %11) #10
  ret void
}