; Function Attrs: mustprogress uwtable
define internal fastcc void @_ZL11mpi_montmulP11mbedtls_mpiPKS_S2_mS2_(ptr noundef readonly captures(none) %0, ptr noundef readonly captures(none) %1, ptr noundef readonly captures(none) %2, i64 noundef %3, ptr noundef nonnull readonly captures(none) %4) unnamed_addr #1 {
  %6 = getelementptr inbounds nuw i8, ptr %4, i64 16
  %7 = load ptr, ptr %6, align 8, !tbaa !11
  %8 = getelementptr inbounds nuw i8, ptr %4, i64 8
  %9 = load i64, ptr %8, align 8, !tbaa !12
  %10 = shl i64 %9, 3
  tail call void @llvm.memset.p0.i64(ptr align 8 %7, i8 0, i64 %10, i1 false)
  %11 = load ptr, ptr %6, align 8, !tbaa !11
  %12 = getelementptr inbounds nuw i8, ptr %2, i64 8
  %13 = load i64, ptr %12, align 8, !tbaa !12
  %14 = getelementptr inbounds nuw i8, ptr %1, i64 8
  %15 = load i64, ptr %14, align 8, !tbaa !12
  %. = tail call i64 @llvm.umin.i64(i64 %15, i64 %13)
  %.not = icmp eq i64 %13, 0
  br i1 %.not, label %._crit_edge, label %.lr.ph

.lr.ph:                                           ; preds = %5
  %16 = getelementptr inbounds nuw i8, ptr %0, i64 16
  %17 = getelementptr inbounds nuw i8, ptr %1, i64 16
  %18 = getelementptr inbounds nuw i8, ptr %2, i64 16
  br label %19

19:                                               ; preds = %.lr.ph, %19
  %.048 = phi ptr [ %11, %.lr.ph ], [ %30, %19 ]
  %.04447 = phi i64 [ 0, %.lr.ph ], [ %33, %19 ]
  %20 = load ptr, ptr %16, align 8, !tbaa !11
  %21 = getelementptr inbounds nuw i64, ptr %20, i64 %.04447
  %22 = load i64, ptr %21, align 8, !tbaa !13
  %23 = load i64, ptr %.048, align 8, !tbaa !13
  %24 = load ptr, ptr %17, align 8, !tbaa !11
  %25 = load i64, ptr %24, align 8, !tbaa !13
  %26 = mul i64 %25, %22
  %27 = add i64 %26, %23
  %28 = mul i64 %27, %3
  tail call fastcc void @_ZL11mpi_mul_hlpmPKmPmm(i64 noundef %., ptr noundef nonnull %24, ptr noundef nonnull %.048, i64 noundef %22)
  %29 = load ptr, ptr %18, align 8, !tbaa !11
  tail call fastcc void @_ZL11mpi_mul_hlpmPKmPmm(i64 noundef %13, ptr noundef %29, ptr noundef nonnull %.048, i64 noundef %28)
  %30 = getelementptr inbounds nuw i8, ptr %.048, i64 8
  store i64 %22, ptr %.048, align 8, !tbaa !13
  %31 = getelementptr i64, ptr %30, i64 %13
  %32 = getelementptr i8, ptr %31, i64 8
  store i64 0, ptr %32, align 8, !tbaa !13
  %33 = add nuw i64 %.04447, 1
  %exitcond.not = icmp eq i64 %33, %13
  br i1 %exitcond.not, label %._crit_edge, label %19, !llvm.loop !71

._crit_edge:                                      ; preds = %19, %5
  %.0.lcssa = phi ptr [ %11, %5 ], [ %30, %19 ]
  %34 = getelementptr inbounds nuw i8, ptr %0, i64 16
  %35 = load ptr, ptr %34, align 8, !tbaa !11
  %36 = shl i64 %13, 3
  tail call void @llvm.memcpy.p0.p0.i64(ptr align 8 %35, ptr align 8 %.0.lcssa, i64 %36, i1 false)
  %37 = getelementptr inbounds nuw i64, ptr %.0.lcssa, i64 %13
  %38 = load i64, ptr %37, align 8, !tbaa !13
  %39 = add i64 %38, 1
  store i64 %39, ptr %37, align 8, !tbaa !13
  %40 = getelementptr inbounds nuw i8, ptr %2, i64 16
  %41 = load ptr, ptr %40, align 8, !tbaa !11
  br i1 %.not, label %_ZL11mpi_sub_hlpmPmPKmS1_.exit, label %.lr.ph.i

.lr.ph.i:                                         ; preds = %._crit_edge, %.lr.ph.i
  %.020.i = phi i64 [ %53, %.lr.ph.i ], [ 0, %._crit_edge ]
  %.01819.i = phi i64 [ %51, %.lr.ph.i ], [ 0, %._crit_edge ]
  %42 = getelementptr inbounds nuw i64, ptr %.0.lcssa, i64 %.020.i
  %43 = load i64, ptr %42, align 8, !tbaa !13
  %44 = icmp ult i64 %43, %.01819.i
  %45 = zext i1 %44 to i64
  %46 = sub i64 %43, %.01819.i
  %47 = getelementptr inbounds nuw i64, ptr %41, i64 %.020.i
  %48 = load i64, ptr %47, align 8, !tbaa !13
  %49 = icmp ult i64 %46, %48
  %50 = zext i1 %49 to i64
  %51 = add nuw nsw i64 %50, %45
  %52 = sub i64 %46, %48
  store i64 %52, ptr %42, align 8, !tbaa !13
  %53 = add nuw i64 %.020.i, 1
  %exitcond.not.i = icmp eq i64 %53, %13
  br i1 %exitcond.not.i, label %_ZL11mpi_sub_hlpmPmPKmS1_.exit.loopexit, label %.lr.ph.i, !llvm.loop !50

_ZL11mpi_sub_hlpmPmPKmS1_.exit.loopexit:          ; preds = %.lr.ph.i
  %.pre = load i64, ptr %37, align 8, !tbaa !13
  br label %_ZL11mpi_sub_hlpmPmPKmS1_.exit

_ZL11mpi_sub_hlpmPmPKmS1_.exit:                   ; preds = %_ZL11mpi_sub_hlpmPmPKmS1_.exit.loopexit, %._crit_edge
  %54 = phi i64 [ %39, %._crit_edge ], [ %.pre, %_ZL11mpi_sub_hlpmPmPKmS1_.exit.loopexit ]
  %.018.lcssa.i = phi i64 [ 0, %._crit_edge ], [ %51, %_ZL11mpi_sub_hlpmPmPKmS1_.exit.loopexit ]
  %55 = sub i64 %54, %.018.lcssa.i
  store i64 %55, ptr %37, align 8, !tbaa !13
  %56 = load ptr, ptr %34, align 8, !tbaa !11
  %57 = trunc i64 %55 to i8
  tail call void @_Z31mbedtls_ct_mpi_uint_cond_assignmPmPKmh(i64 noundef %13, ptr noundef %56, ptr noundef nonnull %.0.lcssa, i8 noundef zeroext %57)
  ret void
}